target datalayout = "e-m:e-p270:32:32-p271:32:32-p272:64:64-i64:64-i128:128-f80:128-n8:16:32:64-S128"
target triple = "x86_64-unknown-linux-gnu"

%"class.cvc5::internal::TypeNode" = type { ptr }
%"class.cvc5::internal::proof::LfscNodeConverter" = type { %"class.cvc5::internal::NodeConverter.base", %"class.std::map", %"class.std::unordered_set", %"class.std::map.38", %"class.std::map.46", %"class.cvc5::internal::TypeNode", %"class.cvc5::internal::TypeNode", %"class.std::map.53", %"class.std::map.53", %"class.std::map.58", %"class.std::map.65", %"class.std::unordered_set", %"class.std::unordered_set.73" }
%"class.cvc5::internal::NodeConverter.base" = type <{ ptr, %"class.std::unordered_map", %"class.std::unordered_map", %"class.std::unordered_map.2", %"class.std::unordered_map.2", i8 }>
%"class.std::unordered_map" = type { %"class.std::_Hashtable" }
%"class.std::_Hashtable" = type { ptr, i64, %"struct.std::__detail::_Hash_node_base", i64, %"struct.std::__detail::_Prime_rehash_policy", ptr }
%"struct.std::__detail::_Hash_node_base" = type { ptr }
%"struct.std::__detail::_Prime_rehash_policy" = type { float, i64 }
%"class.std::unordered_map.2" = type { %"class.std::_Hashtable.3" }
%"class.std::_Hashtable.3" = type { ptr, i64, %"struct.std::__detail::_Hash_node_base", i64, %"struct.std::__detail::_Prime_rehash_policy", ptr }
%"class.std::map" = type { %"class.std::_Rb_tree" }
%"class.std::_Rb_tree" = type { %"struct.std::_Rb_tree<std::tuple<cvc5::internal::kind::Kind_t, cvc5::internal::TypeNode, std::__cxx11::basic_string<char>>, std::pair<const std::tuple<cvc5::internal::kind::Kind_t, cvc5::internal::TypeNode, std::__cxx11::basic_string<char>>, cvc5::internal::NodeTemplate<true>>, std::_Select1st<std::pair<const std::tuple<cvc5::internal::kind::Kind_t, cvc5::internal::TypeNode, std::__cxx11::basic_string<char>>, cvc5::internal::NodeTemplate<true>>>, std::less<std::tuple<cvc5::internal::kind::Kind_t, cvc5::internal::TypeNode, std::__cxx11::basic_string<char>>>>::_Rb_tree_impl" }
%"struct.std::_Rb_tree<std::tuple<cvc5::internal::kind::Kind_t, cvc5::internal::TypeNode, std::__cxx11::basic_string<char>>, std::pair<const std::tuple<cvc5::internal::kind::Kind_t, cvc5::internal::TypeNode, std::__cxx11::basic_string<char>>, cvc5::internal::NodeTemplate<true>>, std::_Select1st<std::pair<const std::tuple<cvc5::internal::kind::Kind_t, cvc5::internal::TypeNode, std::__cxx11::basic_string<char>>, cvc5::internal::NodeTemplate<true>>>, std::less<std::tuple<cvc5::internal::kind::Kind_t, cvc5::internal::TypeNode, std::__cxx11::basic_string<char>>>>::_Rb_tree_impl" = type { %"struct.std::_Rb_tree_key_compare", %"struct.std::_Rb_tree_header" }
%"struct.std::_Rb_tree_key_compare" = type { %"struct.std::less" }
%"struct.std::less" = type { i8 }
%"struct.std::_Rb_tree_header" = type { %"struct.std::_Rb_tree_node_base", i64 }
%"struct.std::_Rb_tree_node_base" = type { i32, ptr, ptr, ptr }
%"class.std::map.38" = type { %"class.std::_Rb_tree.39" }
%"class.std::_Rb_tree.39" = type { %"struct.std::_Rb_tree<std::__cxx11::basic_string<char>, std::pair<const std::__cxx11::basic_string<char>, std::vector<unsigned long>>, std::_Select1st<std::pair<const std::__cxx11::basic_string<char>, std::vector<unsigned long>>>, std::less<std::__cxx11::basic_string<char>>>::_Rb_tree_impl" }
%"struct.std::_Rb_tree<std::__cxx11::basic_string<char>, std::pair<const std::__cxx11::basic_string<char>, std::vector<unsigned long>>, std::_Select1st<std::pair<const std::__cxx11::basic_string<char>, std::vector<unsigned long>>>, std::less<std::__cxx11::basic_string<char>>>::_Rb_tree_impl" = type { %"struct.std::_Rb_tree_key_compare.43", %"struct.std::_Rb_tree_header" }
%"struct.std::_Rb_tree_key_compare.43" = type { %"struct.std::less.44" }
%"struct.std::less.44" = type { i8 }
%"class.std::map.46" = type { %"class.std::_Rb_tree.47" }
%"class.std::_Rb_tree.47" = type { %"struct.std::_Rb_tree<cvc5::internal::NodeTemplate<true>, std::pair<const cvc5::internal::NodeTemplate<true>, cvc5::internal::kind::Kind_t>, std::_Select1st<std::pair<const cvc5::internal::NodeTemplate<true>, cvc5::internal::kind::Kind_t>>, std::less<cvc5::internal::NodeTemplate<true>>>::_Rb_tree_impl" }
%"struct.std::_Rb_tree<cvc5::internal::NodeTemplate<true>, std::pair<const cvc5::internal::NodeTemplate<true>, cvc5::internal::kind::Kind_t>, std::_Select1st<std::pair<const cvc5::internal::NodeTemplate<true>, cvc5::internal::kind::Kind_t>>, std::less<cvc5::internal::NodeTemplate<true>>>::_Rb_tree_impl" = type { %"struct.std::_Rb_tree_key_compare.51", %"struct.std::_Rb_tree_header" }
%"struct.std::_Rb_tree_key_compare.51" = type { %"struct.std::less.52" }
%"struct.std::less.52" = type { i8 }
%"class.std::map.53" = type { %"class.std::_Rb_tree.54" }
%"class.std::_Rb_tree.54" = type { %"struct.std::_Rb_tree<cvc5::internal::NodeTemplate<true>, std::pair<const cvc5::internal::NodeTemplate<true>, unsigned long>, std::_Select1st<std::pair<const cvc5::internal::NodeTemplate<true>, unsigned long>>, std::less<cvc5::internal::NodeTemplate<true>>>::_Rb_tree_impl" }
%"struct.std::_Rb_tree<cvc5::internal::NodeTemplate<true>, std::pair<const cvc5::internal::NodeTemplate<true>, unsigned long>, std::_Select1st<std::pair<const cvc5::internal::NodeTemplate<true>, unsigned long>>, std::less<cvc5::internal::NodeTemplate<true>>>::_Rb_tree_impl" = type { %"struct.std::_Rb_tree_key_compare.51", %"struct.std::_Rb_tree_header" }
%"class.std::map.58" = type { %"class.std::_Rb_tree.59" }
%"class.std::_Rb_tree.59" = type { %"struct.std::_Rb_tree<cvc5::internal::TypeNode, std::pair<const cvc5::internal::TypeNode, cvc5::internal::NodeTemplate<true>>, std::_Select1st<std::pair<const cvc5::internal::TypeNode, cvc5::internal::NodeTemplate<true>>>, std::less<cvc5::internal::TypeNode>>::_Rb_tree_impl" }
%"struct.std::_Rb_tree<cvc5::internal::TypeNode, std::pair<const cvc5::internal::TypeNode, cvc5::internal::NodeTemplate<true>>, std::_Select1st<std::pair<const cvc5::internal::TypeNode, cvc5::internal::NodeTemplate<true>>>, std::less<cvc5::internal::TypeNode>>::_Rb_tree_impl" = type { %"struct.std::_Rb_tree_key_compare.63", %"struct.std::_Rb_tree_header" }
%"struct.std::_Rb_tree_key_compare.63" = type { %"struct.std::less.64" }
%"struct.std::less.64" = type { i8 }
%"class.std::map.65" = type { %"class.std::_Rb_tree.66" }
%"class.std::_Rb_tree.66" = type { %"struct.std::_Rb_tree<cvc5::internal::kind::Kind_t, std::pair<const cvc5::internal::kind::Kind_t, cvc5::internal::NodeTemplate<true>>, std::_Select1st<std::pair<const cvc5::internal::kind::Kind_t, cvc5::internal::NodeTemplate<true>>>, std::less<cvc5::internal::kind::Kind_t>>::_Rb_tree_impl" }
%"struct.std::_Rb_tree<cvc5::internal::kind::Kind_t, std::pair<const cvc5::internal::kind::Kind_t, cvc5::internal::NodeTemplate<true>>, std::_Select1st<std::pair<const cvc5::internal::kind::Kind_t, cvc5::internal::NodeTemplate<true>>>, std::less<cvc5::internal::kind::Kind_t>>::_Rb_tree_impl" = type { %"struct.std::_Rb_tree_key_compare.70", %"struct.std::_Rb_tree_header" }
%"struct.std::_Rb_tree_key_compare.70" = type { %"struct.std::less.71" }
%"struct.std::less.71" = type { i8 }
%"class.std::unordered_set" = type { %"class.std::_Hashtable.25" }
%"class.std::_Hashtable.25" = type { ptr, i64, %"struct.std::__detail::_Hash_node_base", i64, %"struct.std::__detail::_Prime_rehash_policy", ptr }
%"class.std::unordered_set.73" = type { %"class.std::_Hashtable.74" }
%"class.std::_Hashtable.74" = type { ptr, i64, %"struct.std::__detail::_Hash_node_base", i64, %"struct.std::__detail::_Prime_rehash_policy", ptr }
%"class.cvc5::internal::expr::NodeValue" = type { i64, i16, i32, [0 x ptr] }
%"struct.std::pair.214" = type <{ %"struct.std::__detail::_Node_iterator.216", i8, [7 x i8] }>
%"struct.std::__detail::_Node_iterator.216" = type { %"struct.std::__detail::_Node_iterator_base.217" }
%"struct.std::__detail::_Node_iterator_base.217" = type { ptr }
%"struct.std::__detail::_Identity" = type { i8 }
%"struct.std::__detail::_AllocNode.361" = type { ptr }

; Function Attrs: mustprogress nounwind uwtable
define linkonce_odr hidden noundef nonnull align 8 dereferenceable(8) ptr @_ZNSt10_HashtableIN4cvc58internal8TypeNodeES2_SaIS2_ENSt8__detail9_IdentityESt8equal_toIS2_ESt4hashIS2_ENS4_18_Mod_range_hashingENS4_20_Default_ranged_hashENS4_20_Prime_rehash_policyENS4_17_Hashtable_traitsILb1ELb1ELb1EEEE14_S_forward_keyERKS2_(ptr noundef nonnull align 8 dereferenceable(8) %__k) #5 comdat align 2 {
entry:
  %__k.addr = alloca ptr, align 8
  store ptr %__k, ptr %__k.addr, align 8
  %0 = load ptr, ptr %__k.addr, align 8
  ret ptr %0
}

; Function Attrs: mustprogress nounwind uwtable
define linkonce_odr hidden noundef nonnull align 8 dereferenceable(8) ptr @_ZNKSt8__detail9_IdentityclIRKN4cvc58internal8TypeNodeEEEOT_S8_(ptr noundef nonnull align 1 dereferenceable(1) %this, ptr noundef nonnull align 8 dereferenceable(8) %__x) #5 comdat align 2 {
entry:
  %this.addr = alloca ptr, align 8
  %__x.addr = alloca ptr, align 8
  store ptr %this, ptr %this.addr, align 8
  store ptr %__x, ptr %__x.addr, align 8
  %0 = load ptr, ptr %__x.addr, align 8
  ret ptr %0
}

; Function Attrs: mustprogress uwtable
define linkonce_odr hidden { ptr, i8 } @_ZNSt10_HashtableIN4cvc58internal8TypeNodeES2_SaIS2_ENSt8__detail9_IdentityESt8equal_toIS2_ESt4hashIS2_ENS4_18_Mod_range_hashingENS4_20_Default_ranged_hashENS4_20_Prime_rehash_policyENS4_17_Hashtable_traitsILb1ELb1ELb1EEEE9_M_insertIRKS2_NS4_10_AllocNodeISaINS4_10_Hash_nodeIS2_Lb1EEEEEEEESt4pairINS4_14_Node_iteratorIS2_Lb1ELb1EEEbEOT_RKT0_St17integral_constantIbLb1EE(ptr noundef nonnull align 8 dereferenceable(56) %this, ptr noundef nonnull align 8 dereferenceable(8) %__arg, ptr noundef nonnull align 8 dereferenceable(8) %__node_gen) #4 comdat align 2 {
entry:
  %retval = alloca %"struct.std::pair.214", align 8
  %this.addr = alloca ptr, align 8
  %__arg.addr = alloca ptr, align 8
  %__node_gen.addr = alloca ptr, align 8
  %ref.tmp = alloca %"struct.std::__detail::_Identity", align 1
  store ptr %this, ptr %this.addr, align 8
  store ptr %__arg, ptr %__arg.addr, align 8
  store ptr %__node_gen, ptr %__node_gen.addr, align 8
  %this1 = load ptr, ptr %this.addr, align 8
  %0 = load ptr, ptr %__arg.addr, align 8
  %call = call noundef nonnull align 8 dereferenceable(8) ptr @_ZNKSt8__detail9_IdentityclIRKN4cvc58internal8TypeNodeEEEOT_S8_(ptr noundef nonnull align 1 dereferenceable(1) %ref.tmp, ptr noundef nonnull align 8 dereferenceable(8) %0) #3
  %call2 = call noundef nonnull align 8 dereferenceable(8) ptr @_ZNSt10_HashtableIN4cvc58internal8TypeNodeES2_SaIS2_ENSt8__detail9_IdentityESt8equal_toIS2_ESt4hashIS2_ENS4_18_Mod_range_hashingENS4_20_Default_ranged_hashENS4_20_Prime_rehash_policyENS4_17_Hashtable_traitsILb1ELb1ELb1EEEE14_S_forward_keyERKS2_(ptr noundef nonnull align 8 dereferenceable(8) %call)
  %1 = load ptr, ptr %__arg.addr, align 8
  %2 = load ptr, ptr %__node_gen.addr, align 8
  %call3 = call { ptr, i8 } @_ZNSt10_HashtableIN4cvc58internal8TypeNodeES2_SaIS2_ENSt8__detail9_IdentityESt8equal_toIS2_ESt4hashIS2_ENS4_18_Mod_range_hashingENS4_20_Default_ranged_hashENS4_20_Prime_rehash_policyENS4_17_Hashtable_traitsILb1ELb1ELb1EEEE16_M_insert_uniqueIRKS2_SI_NS4_10_AllocNodeISaINS4_10_Hash_nodeIS2_Lb1EEEEEEEESt4pairINS4_14_Node_iteratorIS2_Lb1ELb1EEEbEOT_OT0_RKT1_(ptr noundef nonnull align 8 dereferenceable(56) %this1, ptr noundef nonnull align 8 dereferenceable(8) %call2, ptr noundef nonnull align 8 dereferenceable(8) %1, ptr noundef nonnull align 8 dereferenceable(8) %2)
  %3 = getelementptr inbounds { ptr, i8 }, ptr %retval, i32 0, i32 0
  %4 = extractvalue { ptr, i8 } %call3, 0
  store ptr %4, ptr %3, align 8
  %5 = getelementptr inbounds { ptr, i8 }, ptr %retval, i32 0, i32 1
  %6 = extractvalue { ptr, i8 } %call3, 1
  store i8 %6, ptr %5, align 8
  %7 = load { ptr, i8 }, ptr %retval, align 8
  ret { ptr, i8 } %7
}

; Function Attrs: mustprogress nounwind uwtable
define linkonce_odr hidden void @_ZNSt8__detail10_AllocNodeISaINS_10_Hash_nodeIN4cvc58internal8TypeNodeELb1EEEEEC2ERNS_16_Hashtable_allocIS6_EE(ptr noundef nonnull align 8 dereferenceable(8) %this, ptr noundef nonnull align 1 dereferenceable(1) %__h) unnamed_addr #5 comdat align 2 {
entry:
  %this.addr = alloca ptr, align 8
  %__h.addr = alloca ptr, align 8
  store ptr %this, ptr %this.addr, align 8
  store ptr %__h, ptr %__h.addr, align 8
  %this1 = load ptr, ptr %this.addr, align 8
  %_M_h = getelementptr inbounds %"struct.std::__detail::_AllocNode.361", ptr %this1, i32 0, i32 0
  %0 = load ptr, ptr %__h.addr, align 8
  store ptr %0, ptr %_M_h, align 8
  ret void
}

; Function Attrs: mustprogress nounwind uwtable
define linkonce_odr hidden noundef nonnull align 8 dereferenceable(56) ptr @_ZNSt8__detail12_Insert_baseIN4cvc58internal8TypeNodeES3_SaIS3_ENS_9_IdentityESt8equal_toIS3_ESt4hashIS3_ENS_18_Mod_range_hashingENS_20_Default_ranged_hashENS_20_Prime_rehash_policyENS_17_Hashtable_traitsILb1ELb1ELb1EEEE20_M_conjure_hashtableEv(ptr noundef nonnull align 1 dereferenceable(1) %this) #5 comdat align 2 {
entry:
  %this.addr = alloca ptr, align 8
  store ptr %this, ptr %this.addr, align 8
  %this1 = load ptr, ptr %this.addr, align 8
  ret ptr %this1
}

; Function Attrs: mustprogress uwtable
define linkonce_odr hidden void @_ZN4cvc58internal4expr9NodeValue3incEv(ptr noundef nonnull align 8 dereferenceable(16) %this) #4 comdat align 2 {
entry:
  %this.addr = alloca ptr, align 8
  store ptr %this, ptr %this.addr, align 8
  %this1 = load ptr, ptr %this.addr, align 8
  %bf.load = load i64, ptr %this1, align 8
  %bf.lshr = lshr i64 %bf.load, 40
  %bf.clear = and i64 %bf.lshr, 1048575
  %bf.cast = trunc i64 %bf.clear to i32
  %cmp = icmp ult i32 %bf.cast, 1048574
  br i1 %cmp, label %if.then, label %if.else

if.then:                                          ; preds = %entry
  %bf.load2 = load i64, ptr %this1, align 8
  %bf.lshr3 = lshr i64 %bf.load2, 40
  %bf.clear4 = and i64 %bf.lshr3, 1048575
  %bf.cast5 = trunc i64 %bf.clear4 to i32
  %inc = add i32 %bf.cast5, 1
  %0 = zext i32 %inc to i64
  %bf.load6 = load i64, ptr %this1, align 8
  %bf.value = and i64 %0, 1048575
  %bf.shl = shl i64 %bf.value, 40
  %bf.clear7 = and i64 %bf.load6, -1152920405095219201
  %bf.set = or i64 %bf.clear7, %bf.shl
  store i64 %bf.set, ptr %this1, align 8
  br label %if.end25

if.else:                                          ; preds = %entry
  %bf.load8 = load i64, ptr %this1, align 8
  %bf.lshr9 = lshr i64 %bf.load8, 40
  %bf.clear10 = and i64 %bf.lshr9, 1048575
  %bf.cast11 = trunc i64 %bf.clear10 to i32
  %cmp12 = icmp eq i32 %bf.cast11, 1048574
  br i1 %cmp12, label %if.then13, label %if.end

if.then13:                                        ; preds = %if.else
  %bf.load14 = load i64, ptr %this1, align 8
  %bf.lshr15 = lshr i64 %bf.load14, 40
  %bf.clear16 = and i64 %bf.lshr15, 1048575
  %bf.cast17 = trunc i64 %bf.clear16 to i32
  %inc18 = add i32 %bf.cast17, 1
  %1 = zext i32 %inc18 to i64
  %bf.load19 = load i64, ptr %this1, align 8
  %bf.value20 = and i64 %1, 1048575
  %bf.shl21 = shl i64 %bf.value20, 40
  %bf.clear22 = and i64 %bf.load19, -1152920405095219201
  %bf.set23 = or i64 %bf.clear22, %bf.shl21
  store i64 %bf.set23, ptr %this1, align 8
  call void @_ZN4cvc58internal4expr9NodeValue20markRefCountMaxedOutEv(ptr noundef nonnull align 8 dereferenceable(16) %this1)
  br label %if.end

if.end:                                           ; preds = %if.then13, %if.else
  br label %if.end25

if.end25:                                         ; preds = %if.end, %if.then
  ret void
}

; Function Attrs: mustprogress uwtable
define linkonce_odr hidden { ptr, i8 } @_ZNSt8__detail12_Insert_baseIN4cvc58internal8TypeNodeES3_SaIS3_ENS_9_IdentityESt8equal_toIS3_ESt4hashIS3_ENS_18_Mod_range_hashingENS_20_Default_ranged_hashENS_20_Prime_rehash_policyENS_17_Hashtable_traitsILb1ELb1ELb1EEEE6insertERKS3_(ptr noundef nonnull align 1 dereferenceable(1) %this, ptr noundef nonnull align 8 dereferenceable(8) %__v) #4 comdat align 2 {
entry:
  %retval = alloca %"struct.std::pair.214", align 8
  %this.addr = alloca ptr, align 8
  %__v.addr = alloca ptr, align 8
  %__h = alloca ptr, align 8
  %__node_gen = alloca %"struct.std::__detail::_AllocNode.361", align 8
  store ptr %this, ptr %this.addr, align 8
  store ptr %__v, ptr %__v.addr, align 8
  %this1 = load ptr, ptr %this.addr, align 8
  %call = call noundef nonnull align 8 dereferenceable(56) ptr @_ZNSt8__detail12_Insert_baseIN4cvc58internal8TypeNodeES3_SaIS3_ENS_9_IdentityESt8equal_toIS3_ESt4hashIS3_ENS_18_Mod_range_hashingENS_20_Default_ranged_hashENS_20_Prime_rehash_policyENS_17_Hashtable_traitsILb1ELb1ELb1EEEE20_M_conjure_hashtableEv(ptr noundef nonnull align 1 dereferenceable(1) %this1)
  store ptr %call, ptr %__h, align 8
  %0 = load ptr, ptr %__h, align 8
  call void @_ZNSt8__detail10_AllocNodeISaINS_10_Hash_nodeIN4cvc58internal8TypeNodeELb1EEEEEC2ERNS_16_Hashtable_allocIS6_EE(ptr noundef nonnull align 8 dereferenceable(8) %__node_gen, ptr noundef nonnull align 1 dereferenceable(1) %0)
  %1 = load ptr, ptr %__h, align 8
  %2 = load ptr, ptr %__v.addr, align 8
  %call2 = call { ptr, i8 } @_ZNSt10_HashtableIN4cvc58internal8TypeNodeES2_SaIS2_ENSt8__detail9_IdentityESt8equal_toIS2_ESt4hashIS2_ENS4_18_Mod_range_hashingENS4_20_Default_ranged_hashENS4_20_Prime_rehash_policyENS4_17_Hashtable_traitsILb1ELb1ELb1EEEE9_M_insertIRKS2_NS4_10_AllocNodeISaINS4_10_Hash_nodeIS2_Lb1EEEEEEEESt4pairINS4_14_Node_iteratorIS2_Lb1ELb1EEEbEOT_RKT0_St17integral_constantIbLb1EE(ptr noundef nonnull align 8 dereferenceable(56) %1, ptr noundef nonnull align 8 dereferenceable(8) %2, ptr noundef nonnull align 8 dereferenceable(8) %__node_gen)
  %3 = getelementptr inbounds { ptr, i8 }, ptr %retval, i32 0, i32 0
  %4 = extractvalue { ptr, i8 } %call2, 0
  store ptr %4, ptr %3, align 8
  %5 = getelementptr inbounds { ptr, i8 }, ptr %retval, i32 0, i32 1
  %6 = extractvalue { ptr, i8 } %call2, 1
  store i8 %6, ptr %5, align 8
  %7 = load { ptr, i8 }, ptr %retval, align 8
  ret { ptr, i8 } %7
}

; Function Attrs: mustprogress uwtable
define linkonce_odr hidden void @_ZN4cvc58internal8TypeNodeC2ERKS1_(ptr noundef nonnull align 8 dereferenceable(8) %this, ptr noundef nonnull align 8 dereferenceable(8) %typeNode) unnamed_addr #4 comdat align 2 {
entry:
  %this.addr = alloca ptr, align 8
  %typeNode.addr = alloca ptr, align 8
  store ptr %this, ptr %this.addr, align 8
  store ptr %typeNode, ptr %typeNode.addr, align 8
  %this1 = load ptr, ptr %this.addr, align 8
  %0 = load ptr, ptr %typeNode.addr, align 8
  %d_nv = getelementptr inbounds %"class.cvc5::internal::TypeNode", ptr %0, i32 0, i32 0
  %1 = load ptr, ptr %d_nv, align 8
  %d_nv2 = getelementptr inbounds %"class.cvc5::internal::TypeNode", ptr %this1, i32 0, i32 0
  store ptr %1, ptr %d_nv2, align 8
  %d_nv3 = getelementptr inbounds %"class.cvc5::internal::TypeNode", ptr %this1, i32 0, i32 0
  %2 = load ptr, ptr %d_nv3, align 8
  call void @_ZN4cvc58internal4expr9NodeValue3incEv(ptr noundef nonnull align 8 dereferenceable(16) %2)
  ret void
}

; Function Attrs: mustprogress uwtable
define linkonce_odr hidden { ptr, i8 } @_ZNSt13unordered_setIN4cvc58internal8TypeNodeESt4hashIS2_ESt8equal_toIS2_ESaIS2_EE6insertERKS2_(ptr noundef nonnull align 8 dereferenceable(56) %this, ptr noundef nonnull align 8 dereferenceable(8) %__x) #4 comdat align 2 {
entry:
  %retval = alloca %"struct.std::pair.214", align 8
  %this.addr = alloca ptr, align 8
  %__x.addr = alloca ptr, align 8
  store ptr %this, ptr %this.addr, align 8
  store ptr %__x, ptr %__x.addr, align 8
  %this1 = load ptr, ptr %this.addr, align 8
  %_M_h = getelementptr inbounds %"class.std::unordered_set.73", ptr %this1, i32 0, i32 0
  %0 = load ptr, ptr %__x.addr, align 8
  %call = call { ptr, i8 } @_ZNSt8__detail12_Insert_baseIN4cvc58internal8TypeNodeES3_SaIS3_ENS_9_IdentityESt8equal_toIS3_ESt4hashIS3_ENS_18_Mod_range_hashingENS_20_Default_ranged_hashENS_20_Prime_rehash_policyENS_17_Hashtable_traitsILb1ELb1ELb1EEEE6insertERKS3_(ptr noundef nonnull align 1 dereferenceable(1) %_M_h, ptr noundef nonnull align 8 dereferenceable(8) %0)
  %1 = getelementptr inbounds { ptr, i8 }, ptr %retval, i32 0, i32 0
  %2 = extractvalue { ptr, i8 } %call, 0
  store ptr %2, ptr %1, align 8
  %3 = getelementptr inbounds { ptr, i8 }, ptr %retval, i32 0, i32 1
  %4 = extractvalue { ptr, i8 } %call, 1
  store i8 %4, ptr %3, align 8
  %5 = load { ptr, i8 }, ptr %retval, align 8
  ret { ptr, i8 } %5
}

; Function Attrs: mustprogress nounwind uwtable
define linkonce_odr hidden noundef i32 @_ZNK4cvc58internal8TypeNode7getKindEv(ptr noundef nonnull align 8 dereferenceable(8) %this) #5 comdat align 2 {
entry:
  %this.addr = alloca ptr, align 8
  store ptr %this, ptr %this.addr, align 8
  %this1 = load ptr, ptr %this.addr, align 8
  %d_nv = getelementptr inbounds %"class.cvc5::internal::TypeNode", ptr %this1, i32 0, i32 0
  %0 = load ptr, ptr %d_nv, align 8
  %d_kind = getelementptr inbounds %"class.cvc5::internal::expr::NodeValue", ptr %0, i32 0, i32 1
  %bf.load = load i16, ptr %d_kind, align 8
  %bf.clear = and i16 %bf.load, 1023
  %bf.cast = zext i16 %bf.clear to i32
  ret i32 %bf.cast
}

; Function Attrs: mustprogress uwtable
define hidden void @_ZN4cvc58internal5proof17LfscNodeConverter14preConvertTypeENS0_8TypeNodeE(ptr noalias sret(%"class.cvc5::internal::TypeNode") align 8 %agg.result, ptr noundef nonnull align 8 dereferenceable(760) %this, ptr noundef %tn) unnamed_addr #4 align 2 {
entry:
  %result.ptr = alloca ptr, align 8
  %this.addr = alloca ptr, align 8
  %tn.indirect_addr = alloca ptr, align 8
  %coerce = alloca %"struct.std::pair.214", align 8
  store ptr %agg.result, ptr %result.ptr, align 8
  store ptr %this, ptr %this.addr, align 8
  store ptr %tn, ptr %tn.indirect_addr, align 8
  %this1 = load ptr, ptr %this.addr, align 8
  %call = call noundef i32 @_ZNK4cvc58internal8TypeNode7getKindEv(ptr noundef nonnull align 8 dereferenceable(8) %tn)
  %cmp = icmp eq i32 %call, 223
  br i1 %cmp, label %if.then, label %if.end

if.then:                                          ; preds = %entry
  %d_declTypes = getelementptr inbounds %"class.cvc5::internal::proof::LfscNodeConverter", ptr %this1, i32 0, i32 12
  %call2 = call { ptr, i8 } @_ZNSt13unordered_setIN4cvc58internal8TypeNodeESt4hashIS2_ESt8equal_toIS2_ESaIS2_EE6insertERKS2_(ptr noundef nonnull align 8 dereferenceable(56) %d_declTypes, ptr noundef nonnull align 8 dereferenceable(8) %tn)
  %0 = getelementptr inbounds { ptr, i8 }, ptr %coerce, i32 0, i32 0
  %1 = extractvalue { ptr, i8 } %call2, 0
  store ptr %1, ptr %0, align 8
  %2 = getelementptr inbounds { ptr, i8 }, ptr %coerce, i32 0, i32 1
  %3 = extractvalue { ptr, i8 } %call2, 1
  store i8 %3, ptr %2, align 8
  br label %if.end

if.end:                                           ; preds = %if.then, %entry
  call void @_ZN4cvc58internal8TypeNodeC2ERKS1_(ptr noundef nonnull align 8 dereferenceable(8) %agg.result, ptr noundef nonnull align 8 dereferenceable(8) %tn)
  ret void
}