; Function Attrs: mustprogress uwtable
define hidden void @_ZN4cvc58internal5proof17LfscNodeConverter14preConvertTypeENS0_8TypeNodeE(ptr noalias nocapture writeonly sret(%"class.cvc5::internal::TypeNode") align 8 %agg.result, ptr noundef nonnull align 8 dereferenceable(760) %this, ptr noundef %tn) unnamed_addr #3 align 2 {
entry:
  %__node_gen.i.i = alloca %"struct.std::__detail::_AllocNode.361", align 8
  %0 = load ptr, ptr %tn, align 8
  %d_kind.i = getelementptr inbounds i8, ptr %0, i64 8
  %bf.load.i = load i16, ptr %d_kind.i, align 8
  %bf.clear.i = and i16 %bf.load.i, 1023
  %cmp = icmp eq i16 %bf.clear.i, 223
  br i1 %cmp, label %if.then, label %if.end

if.then:                                          ; preds = %entry
  %d_declTypes = getelementptr inbounds i8, ptr %this, i64 704
  call void @llvm.lifetime.start.p0(i64 8, ptr nonnull %__node_gen.i.i)
  store ptr %d_declTypes, ptr %__node_gen.i.i, align 8
  %call3.i.i.i = call { ptr, i8 } @_ZNSt10_HashtableIN4cvc58internal8TypeNodeES2_SaIS2_ENSt8__detail9_IdentityESt8equal_toIS2_ESt4hashIS2_ENS4_18_Mod_range_hashingENS4_20_Default_ranged_hashENS4_20_Prime_rehash_policyENS4_17_Hashtable_traitsILb1ELb1ELb1EEEE16_M_insert_uniqueIRKS2_SI_NS4_10_AllocNodeISaINS4_10_Hash_nodeIS2_Lb1EEEEEEEESt4pairINS4_14_Node_iteratorIS2_Lb1ELb1EEEbEOT_OT0_RKT1_(ptr noundef nonnull align 8 dereferenceable(56) %d_declTypes, ptr noundef nonnull align 8 dereferenceable(8) %tn, ptr noundef nonnull align 8 dereferenceable(8) %tn, ptr noundef nonnull align 8 dereferenceable(8) %__node_gen.i.i)
  call void @llvm.lifetime.end.p0(i64 8, ptr nonnull %__node_gen.i.i)
  %.pre = load ptr, ptr %tn, align 8
  br label %if.end

if.end:                                           ; preds = %if.then, %entry
  %1 = phi ptr [ %.pre, %if.then ], [ %0, %entry ]
  store ptr %1, ptr %agg.result, align 8
  %bf.load.i.i = load i64, ptr %1, align 8
  %bf.lshr.i.i = lshr i64 %bf.load.i.i, 40
  %2 = trunc i64 %bf.lshr.i.i to i32
  %bf.cast.i.i = and i32 %2, 1048575
  %cmp.i.i = icmp ult i32 %bf.cast.i.i, 1048574
  br i1 %cmp.i.i, label %if.then.i.i, label %if.else.i.i

if.then.i.i:                                      ; preds = %if.end
  %bf.value.i.i = add i64 %bf.load.i.i, 1099511627776
  %bf.shl.i.i = and i64 %bf.value.i.i, 1152920405095219200
  %bf.clear7.i.i = and i64 %bf.load.i.i, -1152920405095219201
  %bf.set.i.i = or disjoint i64 %bf.shl.i.i, %bf.clear7.i.i
  store i64 %bf.set.i.i, ptr %1, align 8
  br label %_ZN4cvc58internal8TypeNodeC2ERKS1_.exit

if.else.i.i:                                      ; preds = %if.end
  %cmp12.i.i = icmp eq i32 %bf.cast.i.i, 1048574
  br i1 %cmp12.i.i, label %if.then13.i.i, label %_ZN4cvc58internal8TypeNodeC2ERKS1_.exit

if.then13.i.i:                                    ; preds = %if.else.i.i
  %bf.set23.i.i = or i64 %bf.load.i.i, 1152920405095219200
  store i64 %bf.set23.i.i, ptr %1, align 8
  call void @_ZN4cvc58internal4expr9NodeValue20markRefCountMaxedOutEv(ptr noundef nonnull align 8 dereferenceable(16) %1)
  br label %_ZN4cvc58internal8TypeNodeC2ERKS1_.exit

_ZN4cvc58internal8TypeNodeC2ERKS1_.exit:          ; preds = %if.then.i.i, %if.else.i.i, %if.then13.i.i
  ret void
}